target datalayout = "e-m:e-p270:32:32-p271:32:32-p272:64:64-i64:64-i128:128-f80:128-n8:16:32:64-S128"
target triple = "x86_64-pc-linux-gnu"

%struct.PJconsts = type { ptr, ptr, ptr, ptr, ptr, ptr, ptr, ptr, ptr, ptr, ptr, ptr, i32, ptr, ptr, ptr, ptr, ptr, ptr, ptr, ptr, double, double, double, double, double, double, double, double, double, double, double, double, double, double, double, double, double, double, double, double, double, double, i32, i32, i32, i32, i32, i32, i32, i32, i32, i32, i32, ptr, ptr, ptr, ptr, ptr, ptr, double, double, double, double, double, double, double, double, double, double, double, i32, [7 x double], i32, ptr, ptr, double, double, i32, [4 x i8], %"class.std::shared_ptr", i8, double, i8, %"class.std::__cxx11::basic_string", %"class.std::__cxx11::basic_string", %"class.std::__cxx11::basic_string", i8, %"class.std::vector", i32, %"class.std::vector.3", i32, i8, i8, i8, ptr }
%"class.std::shared_ptr" = type { %"class.std::__shared_ptr" }
%"class.std::__shared_ptr" = type { ptr, %"class.std::__shared_count" }
%"class.std::__shared_count" = type { ptr }
%"class.std::__cxx11::basic_string" = type { %"struct.std::__cxx11::basic_string<char>::_Alloc_hider", i64, %union.anon }
%"struct.std::__cxx11::basic_string<char>::_Alloc_hider" = type { ptr }
%union.anon = type { i64, [8 x i8] }
%"class.std::vector" = type { %"struct.std::_Vector_base" }
%"struct.std::_Vector_base" = type { %"struct.std::_Vector_base<osgeo::proj::operation::GridDescription, std::allocator<osgeo::proj::operation::GridDescription>>::_Vector_impl" }
%"struct.std::_Vector_base<osgeo::proj::operation::GridDescription, std::allocator<osgeo::proj::operation::GridDescription>>::_Vector_impl" = type { %"struct.std::_Vector_base<osgeo::proj::operation::GridDescription, std::allocator<osgeo::proj::operation::GridDescription>>::_Vector_impl_data" }
%"struct.std::_Vector_base<osgeo::proj::operation::GridDescription, std::allocator<osgeo::proj::operation::GridDescription>>::_Vector_impl_data" = type { ptr, ptr, ptr }
%"class.std::vector.3" = type { %"struct.std::_Vector_base.4" }
%"struct.std::_Vector_base.4" = type { %"struct.std::_Vector_base<PJCoordOperation, std::allocator<PJCoordOperation>>::_Vector_impl" }
%"struct.std::_Vector_base<PJCoordOperation, std::allocator<PJCoordOperation>>::_Vector_impl" = type { %"struct.std::_Vector_base<PJCoordOperation, std::allocator<PJCoordOperation>>::_Vector_impl_data" }
%"struct.std::_Vector_base<PJCoordOperation, std::allocator<PJCoordOperation>>::_Vector_impl_data" = type { ptr, ptr, ptr }
%"struct.(anonymous namespace)::pj_bertin1953" = type { double, double, double, double, double }

@_ZL14des_bertin1953 = internal constant [30 x i8] c"Bertin 1953\0A\09Misc Sph no inv.\00", align 16
@.str = private unnamed_addr constant [11 x i8] c"bertin1953\00", align 1

; Function Attrs: mustprogress uwtable
define hidden noundef ptr @_Z39pj_projection_specific_setup_bertin1953P8PJconsts(ptr noundef %0) #0 {
  %2 = alloca ptr, align 8
  %3 = alloca ptr, align 8
  %4 = alloca ptr, align 8
  %5 = alloca i32, align 4
  store ptr %0, ptr %3, align 8, !tbaa !3
  call void @llvm.lifetime.start.p0(i64 8, ptr %4) #7
  %6 = call noalias ptr @calloc(i64 noundef 1, i64 noundef 40) #8
  store ptr %6, ptr %4, align 8, !tbaa !41
  %7 = load ptr, ptr %4, align 8, !tbaa !41
  %8 = icmp eq ptr null, %7
  br i1 %8, label %9, label %12

9:                                                ; preds = %1
  %10 = load ptr, ptr %3, align 8, !tbaa !3
  %11 = call noundef ptr @_Z21pj_default_destructorP8PJconstsi(ptr noundef %10, i32 noundef 4096)
  store ptr %11, ptr %2, align 8
  store i32 1, ptr %5, align 4
  br label %41

12:                                               ; preds = %1
  %13 = load ptr, ptr %4, align 8, !tbaa !41
  %14 = load ptr, ptr %3, align 8, !tbaa !3
  %15 = getelementptr inbounds nuw %struct.PJconsts, ptr %14, i32 0, i32 11
  store ptr %13, ptr %15, align 8, !tbaa !43
  %16 = load ptr, ptr %3, align 8, !tbaa !3
  %17 = getelementptr inbounds nuw %struct.PJconsts, ptr %16, i32 0, i32 60
  store double 0.000000e+00, ptr %17, align 8, !tbaa !44
  %18 = load ptr, ptr %3, align 8, !tbaa !3
  %19 = getelementptr inbounds nuw %struct.PJconsts, ptr %18, i32 0, i32 61
  store double 0xBFE7750CB50C6E5B, ptr %19, align 8, !tbaa !45
  %20 = load ptr, ptr %3, align 8, !tbaa !3
  %21 = getelementptr inbounds nuw %struct.PJconsts, ptr %20, i32 0, i32 61
  %22 = load double, ptr %21, align 8, !tbaa !45
  %23 = call double @cos(double noundef %22) #7, !tbaa !46
  %24 = load ptr, ptr %4, align 8, !tbaa !41
  %25 = getelementptr inbounds nuw %"struct.(anonymous namespace)::pj_bertin1953", ptr %24, i32 0, i32 0
  store double %23, ptr %25, align 8, !tbaa !47
  %26 = load ptr, ptr %3, align 8, !tbaa !3
  %27 = getelementptr inbounds nuw %struct.PJconsts, ptr %26, i32 0, i32 61
  %28 = load double, ptr %27, align 8, !tbaa !45
  %29 = call double @sin(double noundef %28) #7, !tbaa !46
  %30 = load ptr, ptr %4, align 8, !tbaa !41
  %31 = getelementptr inbounds nuw %"struct.(anonymous namespace)::pj_bertin1953", ptr %30, i32 0, i32 1
  store double %29, ptr %31, align 8, !tbaa !49
  %32 = load ptr, ptr %4, align 8, !tbaa !41
  %33 = getelementptr inbounds nuw %"struct.(anonymous namespace)::pj_bertin1953", ptr %32, i32 0, i32 2
  store double 1.000000e+00, ptr %33, align 8, !tbaa !50
  %34 = load ptr, ptr %4, align 8, !tbaa !41
  %35 = getelementptr inbounds nuw %"struct.(anonymous namespace)::pj_bertin1953", ptr %34, i32 0, i32 3
  store double 0.000000e+00, ptr %35, align 8, !tbaa !51
  %36 = load ptr, ptr %3, align 8, !tbaa !3
  %37 = getelementptr inbounds nuw %struct.PJconsts, ptr %36, i32 0, i32 27
  store double 0.000000e+00, ptr %37, align 8, !tbaa !52
  %38 = load ptr, ptr %3, align 8, !tbaa !3
  %39 = getelementptr inbounds nuw %struct.PJconsts, ptr %38, i32 0, i32 13
  store ptr @_ZL20bertin1953_s_forward5PJ_LPP8PJconsts, ptr %39, align 8, !tbaa !53
  %40 = load ptr, ptr %3, align 8, !tbaa !3
  store ptr %40, ptr %2, align 8
  store i32 1, ptr %5, align 4
  br label %41

41:                                               ; preds = %12, %9
  call void @llvm.lifetime.end.p0(i64 8, ptr %4) #7
  %42 = load ptr, ptr %2, align 8
  ret ptr %42
}

; Function Attrs: mustprogress uwtable
define hidden ptr @pj_bertin1953(ptr noundef %0) #0 {
  %2 = alloca ptr, align 8
  %3 = alloca ptr, align 8
  store ptr %0, ptr %3, align 8, !tbaa !3
  %4 = load ptr, ptr %3, align 8, !tbaa !3
  %5 = icmp ne ptr %4, null
  br i1 %5, label %6, label %9

6:                                                ; preds = %1
  %7 = load ptr, ptr %3, align 8, !tbaa !3
  %8 = call noundef ptr @_Z39pj_projection_specific_setup_bertin1953P8PJconsts(ptr noundef %7)
  store ptr %8, ptr %2, align 8
  br label %26

9:                                                ; preds = %1
  %10 = call noundef ptr @_Z6pj_newv()
  store ptr %10, ptr %3, align 8, !tbaa !3
  %11 = load ptr, ptr %3, align 8, !tbaa !3
  %12 = icmp eq ptr null, %11
  br i1 %12, label %13, label %14

13:                                               ; preds = %9
  store ptr null, ptr %2, align 8
  br label %26

14:                                               ; preds = %9
  %15 = load ptr, ptr %3, align 8, !tbaa !3
  %16 = getelementptr inbounds nuw %struct.PJconsts, ptr %15, i32 0, i32 1
  store ptr @.str, ptr %16, align 8, !tbaa !8
  %17 = load ptr, ptr %3, align 8, !tbaa !3
  %18 = getelementptr inbounds nuw %struct.PJconsts, ptr %17, i32 0, i32 2
  store ptr @_ZL14des_bertin1953, ptr %18, align 8, !tbaa !37
  %19 = load ptr, ptr %3, align 8, !tbaa !3
  %20 = getelementptr inbounds nuw %struct.PJconsts, ptr %19, i32 0, i32 47
  store i32 1, ptr %20, align 8, !tbaa !38
  %21 = load ptr, ptr %3, align 8, !tbaa !3
  %22 = getelementptr inbounds nuw %struct.PJconsts, ptr %21, i32 0, i32 52
  store i32 4, ptr %22, align 4, !tbaa !39
  %23 = load ptr, ptr %3, align 8, !tbaa !3
  %24 = getelementptr inbounds nuw %struct.PJconsts, ptr %23, i32 0, i32 53
  store i32 1, ptr %24, align 8, !tbaa !40
  %25 = load ptr, ptr %3, align 8, !tbaa !3
  store ptr %25, ptr %2, align 8
  br label %26

26:                                               ; preds = %14, %13, %6
  %27 = load ptr, ptr %2, align 8
  ret ptr %27
}